target datalayout = "e-m:e-p270:32:32-p271:32:32-p272:64:64-i64:64-i128:128-f80:128-n8:16:32:64-S128"
target triple = "x86_64-pc-linux-gnu"

%struct.Gli_Man_t_ = type { ptr, ptr, ptr, ptr, ptr, i32, i32, i32, i32, i32, ptr, ptr }
%struct.Gli_Obj_t_ = type { i32, i32, ptr, i32, %union.anon, %union.anon.0, [0 x i32] }
%union.anon = type { i32 }
%union.anon.0 = type { i32 }

@.str = private unnamed_addr constant [10 x i8] c"Node %d \0A\00", align 1
@.str.1 = private unnamed_addr constant [9 x i8] c"Fanins: \00", align 1
@.str.2 = private unnamed_addr constant [4 x i8] c"%d \00", align 1
@.str.3 = private unnamed_addr constant [2 x i8] c"\0A\00", align 1
@.str.4 = private unnamed_addr constant [10 x i8] c"Fanouts: \00", align 1

; Function Attrs: inlinehint nounwind uwtable
define internal i32 @Gli_ObjSize(ptr noundef %0) #3 {
  %2 = alloca ptr, align 8
  store ptr %0, ptr %2, align 8, !tbaa !27
  %3 = load ptr, ptr %2, align 8, !tbaa !27
  %4 = load i32, ptr %3, align 8
  %5 = lshr i32 %4, 4
  %6 = and i32 %5, 7
  %7 = zext i32 %6 to i64
  %8 = add i64 8, %7
  %9 = load ptr, ptr %2, align 8, !tbaa !27
  %10 = load i32, ptr %9, align 8
  %11 = lshr i32 %10, 7
  %12 = zext i32 %11 to i64
  %13 = add i64 %8, %12
  %14 = trunc i64 %13 to i32
  ret i32 %14
}

; Function Attrs: inlinehint nounwind uwtable
define internal ptr @Gli_ObjFanout(ptr noundef %0, i32 noundef %1) #3 {
  %3 = alloca ptr, align 8
  %4 = alloca i32, align 4
  store ptr %0, ptr %3, align 8, !tbaa !27
  store i32 %1, ptr %4, align 4, !tbaa !3
  %5 = load ptr, ptr %3, align 8, !tbaa !27
  %6 = load ptr, ptr %3, align 8, !tbaa !27
  %7 = getelementptr inbounds nuw %struct.Gli_Obj_t_, ptr %6, i32 0, i32 6
  %8 = load ptr, ptr %3, align 8, !tbaa !27
  %9 = load i32, ptr %8, align 8
  %10 = lshr i32 %9, 4
  %11 = and i32 %10, 7
  %12 = load i32, ptr %4, align 4, !tbaa !3
  %13 = add nsw i32 %11, %12
  %14 = sext i32 %13 to i64
  %15 = getelementptr inbounds [0 x i32], ptr %7, i64 0, i64 %14
  %16 = load i32, ptr %15, align 4, !tbaa !3
  %17 = sext i32 %16 to i64
  %18 = getelementptr inbounds i32, ptr %5, i64 %17
  ret ptr %18
}

; Function Attrs: inlinehint nounwind uwtable
define internal ptr @Gli_ObjFanin(ptr noundef %0, i32 noundef %1) #3 {
  %3 = alloca ptr, align 8
  %4 = alloca i32, align 4
  store ptr %0, ptr %3, align 8, !tbaa !27
  store i32 %1, ptr %4, align 4, !tbaa !3
  %5 = load ptr, ptr %3, align 8, !tbaa !27
  %6 = load ptr, ptr %3, align 8, !tbaa !27
  %7 = getelementptr inbounds nuw %struct.Gli_Obj_t_, ptr %6, i32 0, i32 6
  %8 = load i32, ptr %4, align 4, !tbaa !3
  %9 = sext i32 %8 to i64
  %10 = getelementptr inbounds [0 x i32], ptr %7, i64 0, i64 %9
  %11 = load i32, ptr %10, align 4, !tbaa !3
  %12 = sext i32 %11 to i64
  %13 = sub i64 0, %12
  %14 = getelementptr inbounds i32, ptr %5, i64 %13
  ret ptr %14
}

; Function Attrs: inlinehint nounwind uwtable
define internal ptr @Gli_ManObj(ptr noundef %0, i32 noundef %1) #3 {
  %3 = alloca ptr, align 8
  %4 = alloca i32, align 4
  store ptr %0, ptr %3, align 8, !tbaa !7
  store i32 %1, ptr %4, align 4, !tbaa !3
  %5 = load ptr, ptr %3, align 8, !tbaa !7
  %6 = getelementptr inbounds nuw %struct.Gli_Man_t_, ptr %5, i32 0, i32 10
  %7 = load ptr, ptr %6, align 8, !tbaa !20
  %8 = load i32, ptr %4, align 4, !tbaa !3
  %9 = sext i32 %8 to i64
  %10 = getelementptr inbounds i32, ptr %7, i64 %9
  ret ptr %10
}

; Function Attrs: nounwind uwtable
define void @Gli_ManPrintObjects(ptr noundef %0) #0 {
  %2 = alloca ptr, align 8
  %3 = alloca ptr, align 8
  %4 = alloca ptr, align 8
  %5 = alloca i32, align 4
  %6 = alloca i32, align 4
  store ptr %0, ptr %2, align 8, !tbaa !7
  call void @llvm.lifetime.start.p0(i64 8, ptr %3) #10
  call void @llvm.lifetime.start.p0(i64 8, ptr %4) #10
  call void @llvm.lifetime.start.p0(i64 4, ptr %5) #10
  call void @llvm.lifetime.start.p0(i64 4, ptr %6) #10
  store i32 0, ptr %5, align 4, !tbaa !3
  br label %7

7:                                                ; preds = %74, %1
  %8 = load i32, ptr %5, align 4, !tbaa !3
  %9 = load ptr, ptr %2, align 8, !tbaa !7
  %10 = getelementptr inbounds nuw %struct.Gli_Man_t_, ptr %9, i32 0, i32 9
  %11 = load i32, ptr %10, align 8, !tbaa !19
  %12 = icmp slt i32 %8, %11
  br i1 %12, label %13, label %18

13:                                               ; preds = %7
  %14 = load ptr, ptr %2, align 8, !tbaa !7
  %15 = load i32, ptr %5, align 4, !tbaa !3
  %16 = call ptr @Gli_ManObj(ptr noundef %14, i32 noundef %15)
  store ptr %16, ptr %3, align 8, !tbaa !27
  %17 = icmp ne ptr %16, null
  br label %18

18:                                               ; preds = %13, %7
  %19 = phi i1 [ false, %7 ], [ %17, %13 ]
  br i1 %19, label %20, label %79

20:                                               ; preds = %18
  %21 = load ptr, ptr %3, align 8, !tbaa !27
  %22 = getelementptr inbounds nuw %struct.Gli_Obj_t_, ptr %21, i32 0, i32 1
  %23 = load i32, ptr %22, align 4, !tbaa !29
  %24 = call i32 (ptr, ...) @printf(ptr noundef @.str, i32 noundef %23)
  %25 = call i32 (ptr, ...) @printf(ptr noundef @.str.1)
  store i32 0, ptr %6, align 4, !tbaa !3
  br label %26

26:                                               ; preds = %45, %20
  %27 = load i32, ptr %6, align 4, !tbaa !3
  %28 = load ptr, ptr %3, align 8, !tbaa !27
  %29 = load i32, ptr %28, align 8
  %30 = lshr i32 %29, 4
  %31 = and i32 %30, 7
  %32 = icmp slt i32 %27, %31
  br i1 %32, label %33, label %38

33:                                               ; preds = %26
  %34 = load ptr, ptr %3, align 8, !tbaa !27
  %35 = load i32, ptr %6, align 4, !tbaa !3
  %36 = call ptr @Gli_ObjFanin(ptr noundef %34, i32 noundef %35)
  store ptr %36, ptr %4, align 8, !tbaa !27
  %37 = icmp ne ptr %36, null
  br label %38

38:                                               ; preds = %33, %26
  %39 = phi i1 [ false, %26 ], [ %37, %33 ]
  br i1 %39, label %40, label %48

40:                                               ; preds = %38
  %41 = load ptr, ptr %4, align 8, !tbaa !27
  %42 = getelementptr inbounds nuw %struct.Gli_Obj_t_, ptr %41, i32 0, i32 1
  %43 = load i32, ptr %42, align 4, !tbaa !29
  %44 = call i32 (ptr, ...) @printf(ptr noundef @.str.2, i32 noundef %43)
  br label %45

45:                                               ; preds = %40
  %46 = load i32, ptr %6, align 4, !tbaa !3
  %47 = add nsw i32 %46, 1
  store i32 %47, ptr %6, align 4, !tbaa !3
  br label %26, !llvm.loop !32

48:                                               ; preds = %38
  %49 = call i32 (ptr, ...) @printf(ptr noundef @.str.3)
  %50 = call i32 (ptr, ...) @printf(ptr noundef @.str.4)
  store i32 0, ptr %6, align 4, !tbaa !3
  br label %51

51:                                               ; preds = %69, %48
  %52 = load i32, ptr %6, align 4, !tbaa !3
  %53 = load ptr, ptr %3, align 8, !tbaa !27
  %54 = load i32, ptr %53, align 8
  %55 = lshr i32 %54, 7
  %56 = icmp slt i32 %52, %55
  br i1 %56, label %57, label %62

57:                                               ; preds = %51
  %58 = load ptr, ptr %3, align 8, !tbaa !27
  %59 = load i32, ptr %6, align 4, !tbaa !3
  %60 = call ptr @Gli_ObjFanout(ptr noundef %58, i32 noundef %59)
  store ptr %60, ptr %4, align 8, !tbaa !27
  %61 = icmp ne ptr %60, null
  br label %62

62:                                               ; preds = %57, %51
  %63 = phi i1 [ false, %51 ], [ %61, %57 ]
  br i1 %63, label %64, label %72

64:                                               ; preds = %62
  %65 = load ptr, ptr %4, align 8, !tbaa !27
  %66 = getelementptr inbounds nuw %struct.Gli_Obj_t_, ptr %65, i32 0, i32 1
  %67 = load i32, ptr %66, align 4, !tbaa !29
  %68 = call i32 (ptr, ...) @printf(ptr noundef @.str.2, i32 noundef %67)
  br label %69

69:                                               ; preds = %64
  %70 = load i32, ptr %6, align 4, !tbaa !3
  %71 = add nsw i32 %70, 1
  store i32 %71, ptr %6, align 4, !tbaa !3
  br label %51, !llvm.loop !34

72:                                               ; preds = %62
  %73 = call i32 (ptr, ...) @printf(ptr noundef @.str.3)
  br label %74

74:                                               ; preds = %72
  %75 = load ptr, ptr %3, align 8, !tbaa !27
  %76 = call i32 @Gli_ObjSize(ptr noundef %75)
  %77 = load i32, ptr %5, align 4, !tbaa !3
  %78 = add nsw i32 %77, %76
  store i32 %78, ptr %5, align 4, !tbaa !3
  br label %7, !llvm.loop !35

79:                                               ; preds = %18
  call void @llvm.lifetime.end.p0(i64 4, ptr %6) #10
  call void @llvm.lifetime.end.p0(i64 4, ptr %5) #10
  call void @llvm.lifetime.end.p0(i64 8, ptr %4) #10
  call void @llvm.lifetime.end.p0(i64 8, ptr %3) #10
  ret void
}