; Function Attrs: nofree nounwind uwtable
define void @Gli_ManPrintObjects(ptr noundef readonly captures(none) %0) local_unnamed_addr #5 {
  %2 = getelementptr i8, ptr %0, i64 64
  %3 = getelementptr inbounds nuw i8, ptr %0, i64 56
  %4 = load i32, ptr %3, align 8, !tbaa !20
  %5 = icmp sgt i32 %4, 0
  br i1 %5, label %.lr.ph35, label %.critedge

.lr.ph35:                                         ; preds = %1, %.critedge4
  %.02234 = phi i32 [ %50, %.critedge4 ], [ 0, %1 ]
  %.val = load ptr, ptr %2, align 8, !tbaa !21
  %6 = zext nneg i32 %.02234 to i64
  %7 = getelementptr inbounds nuw i32, ptr %.val, i64 %6
  %.not = icmp eq ptr %.val, null
  br i1 %.not, label %.critedge, label %8

8:                                                ; preds = %.lr.ph35
  %9 = getelementptr i8, ptr %7, i64 4
  %10 = load i32, ptr %9, align 4, !tbaa !23
  %11 = tail call i32 (ptr, ...) @printf(ptr noundef nonnull dereferenceable(1) @.str, i32 noundef %10)
  %12 = tail call i32 (ptr, ...) @printf(ptr noundef nonnull dereferenceable(1) @.str.1)
  %13 = load i32, ptr %7, align 8
  %14 = and i32 %13, 112
  %.not37 = icmp eq i32 %14, 0
  br i1 %.not37, label %.critedge2, label %.lr.ph

.lr.ph:                                           ; preds = %8
  %15 = getelementptr inbounds nuw i8, ptr %7, i64 28
  br label %16

16:                                               ; preds = %.lr.ph, %16
  %indvars.iv = phi i64 [ 0, %.lr.ph ], [ %indvars.iv.next, %16 ]
  %17 = getelementptr inbounds nuw [0 x i32], ptr %15, i64 0, i64 %indvars.iv
  %18 = load i32, ptr %17, align 4, !tbaa !26
  %19 = sext i32 %18 to i64
  %20 = sub nsw i64 0, %19
  %gep = getelementptr i32, ptr %9, i64 %20
  %21 = load i32, ptr %gep, align 4, !tbaa !23
  %22 = tail call i32 (ptr, ...) @printf(ptr noundef nonnull dereferenceable(1) @.str.2, i32 noundef %21)
  %indvars.iv.next = add nuw nsw i64 %indvars.iv, 1
  %23 = load i32, ptr %7, align 8
  %24 = lshr i32 %23, 4
  %25 = and i32 %24, 7
  %26 = zext nneg i32 %25 to i64
  %27 = icmp samesign ult i64 %indvars.iv.next, %26
  br i1 %27, label %16, label %.critedge2, !llvm.loop !27

.critedge2:                                       ; preds = %16, %8
  %putchar = tail call i32 @putchar(i32 10)
  %28 = tail call i32 (ptr, ...) @printf(ptr noundef nonnull dereferenceable(1) @.str.4)
  %29 = load i32, ptr %7, align 8
  %.not38 = icmp ult i32 %29, 128
  br i1 %.not38, label %.critedge4, label %.lr.ph33

.lr.ph33:                                         ; preds = %.critedge2
  %30 = getelementptr inbounds nuw i8, ptr %7, i64 28
  br label %31

31:                                               ; preds = %.lr.ph33, %31
  %32 = phi i32 [ %29, %.lr.ph33 ], [ %43, %31 ]
  %.132 = phi i32 [ 0, %.lr.ph33 ], [ %42, %31 ]
  %33 = lshr i32 %32, 4
  %34 = and i32 %33, 7
  %35 = add nuw nsw i32 %34, %.132
  %36 = zext nneg i32 %35 to i64
  %37 = getelementptr inbounds nuw [0 x i32], ptr %30, i64 0, i64 %36
  %38 = load i32, ptr %37, align 4, !tbaa !26
  %39 = sext i32 %38 to i64
  %gep31 = getelementptr i32, ptr %9, i64 %39
  %40 = load i32, ptr %gep31, align 4, !tbaa !23
  %41 = tail call i32 (ptr, ...) @printf(ptr noundef nonnull dereferenceable(1) @.str.2, i32 noundef %40)
  %42 = add nuw nsw i32 %.132, 1
  %43 = load i32, ptr %7, align 8
  %44 = lshr i32 %43, 7
  %45 = icmp samesign ult i32 %42, %44
  br i1 %45, label %31, label %.critedge4, !llvm.loop !29

.critedge4:                                       ; preds = %31, %.critedge2
  %putchar27 = tail call i32 @putchar(i32 10)
  %.val28 = load i32, ptr %7, align 8
  %46 = lshr i32 %.val28, 4
  %47 = and i32 %46, 7
  %48 = lshr i32 %.val28, 7
  %49 = add nuw nsw i32 %.02234, 8
  %narrow.i = add nuw nsw i32 %49, %48
  %50 = add nuw nsw i32 %narrow.i, %47
  %51 = load i32, ptr %3, align 8, !tbaa !20
  %52 = icmp slt i32 %50, %51
  br i1 %52, label %.lr.ph35, label %.critedge, !llvm.loop !30

.critedge:                                        ; preds = %.lr.ph35, %.critedge4, %1
  ret void
}